Certificate Request:
    Data:
        Version: 0 (0x0)
        Subject: C=-, ST=-, L=-, O=Mojaloop, OU=PKI
        Subject Public Key Info:
            Public Key Algorithm: rsaEncryption
                Public-Key: (4096 bit)
                Modulus:
                    00:cd:7a:ed:21:56:a0:27:27:11:2c:46:c1:b1:c2:
                    64:fd:fc:16:be:f2:d9:f4:50:08:7c:2b:2e:7b:9a:
                    b4:fd:45:cb:bb:fa:ea:1f:3c:58:64:c4:3a:f3:d0:
                    b9:29:80:18:af:d1:4a:49:06:c5:ca:55:d2:89:8c:
                    ff:f8:31:17:c4:cd:2c:ba:45:d7:fd:e2:ef:0f:fc:
                    86:6a:05:2c:32:b9:bc:48:d5:c8:46:78:ee:19:63:
                    eb:01:c0:e5:e7:d5:f1:95:cb:3a:67:4e:26:33:16:
                    90:41:da:64:85:34:61:99:33:26:2f:4f:90:90:fe:
                    c6:9f:98:4b:76:08:43:dc:42:be:c9:b1:66:f9:d3:
                    09:3d:c0:1f:ab:ac:0e:43:97:41:7a:6b:3c:92:fd:
                    ae:01:53:06:cf:19:b2:a8:d2:f2:76:7f:cf:d9:c4:
                    79:50:e3:39:17:32:a0:ee:a9:8d:1d:32:f6:c5:21:
                    df:4c:b9:64:6e:9e:80:f8:97:2c:e4:47:32:74:43:
                    07:11:c1:a5:ce:91:c6:70:1f:2a:81:1b:a8:ed:1c:
                    2d:16:48:9d:d9:24:ff:92:1d:1f:85:ca:2c:2b:16:
                    ca:6d:dc:0b:89:85:f3:59:40:fd:01:e0:68:55:85:
                    7e:80:94:33:f1:15:87:17:fd:d9:54:2f:d6:35:01:
                    d5:00:0b:39:1a:eb:1e:c5:85:ce:e6:b2:18:e4:07:
                    74:f0:29:84:25:50:60:3f:2c:f2:38:f7:a9:bb:91:
                    33:f2:57:00:30:94:e1:fc:83:82:f9:cd:d8:bd:57:
                    30:2e:68:68:14:c3:8b:a9:0c:de:86:fe:d3:73:0a:
                    b1:7b:a1:9c:ca:ad:b2:fb:b9:73:5a:ea:2d:c3:42:
                    9f:60:60:59:e7:e2:fc:ad:98:62:53:e2:47:bb:5e:
                    b0:34:31:f9:6c:84:67:c4:83:65:e2:e2:8d:81:85:
                    6a:a8:24:ce:a1:9b:88:3b:67:bf:6d:26:7f:20:14:
                    0d:bf:b2:a3:e6:bc:ec:58:b0:68:99:d8:5c:cc:49:
                    0e:a1:99:67:7b:54:53:63:32:20:84:a5:f6:d0:b1:
                    f8:41:68:63:d7:e1:b9:b9:3d:21:5c:f5:e2:19:95:
                    9f:ea:d7:43:36:b1:ff:5f:3a:c5:04:3e:a5:9d:2a:
                    7d:ad:0a:fb:ab:3c:a7:a1:27:e0:47:eb:d0:64:f9:
                    f4:08:c8:e5:8f:28:20:d4:e9:46:5a:0f:73:9b:4e:
                    b8:3f:50:10:c9:6a:aa:e6:8d:88:64:18:05:93:fe:
                    db:9c:c4:6a:15:a4:73:ce:7c:c0:e6:8f:97:83:ba:
                    93:6e:98:c8:b9:a6:5f:05:d6:ca:9f:22:ad:53:05:
                    59:6a:41
                Exponent: 65537 (0x10001)
        Attributes:
        Requested Extensions:
            X509v3 Subject Alternative Name: 
                DNS:ca.test.mojaloop.org
    Signature Algorithm: sha512WithRSAEncryption
         3e:1d:36:93:10:67:c4:ef:2f:86:ca:12:fe:88:b9:d2:a6:de:
         1b:89:41:48:86:70:f6:4b:42:6a:cd:42:08:4f:be:c4:bb:4e:
         a5:2d:c4:3d:5d:e6:01:7d:d1:70:ff:bd:8f:fa:59:8e:b2:10:
         99:27:01:38:aa:07:54:bf:f5:39:97:44:16:70:c3:de:0b:cd:
         01:b7:7e:89:dd:40:65:cf:b1:1f:2f:c4:08:92:23:f0:56:90:
         8f:e2:72:af:26:a7:fa:88:2d:0b:61:7d:7f:ef:8e:35:29:bc:
         a1:1b:06:a4:3d:f3:1b:75:3b:13:4c:e7:aa:36:b6:a3:b1:d2:
         12:5e:41:46:7d:fe:7c:41:07:06:94:55:74:46:1c:59:53:14:
         3f:87:bc:5f:ef:c3:71:53:dc:9f:c2:21:4b:f3:93:f9:69:a6:
         2c:4e:3e:9a:2c:a7:03:cc:38:32:cc:2c:92:d3:0b:0e:f2:50:
         66:28:bb:48:15:bd:ef:1b:8f:8c:fe:bf:02:da:ad:e8:3f:59:
         09:e5:7c:8e:a7:84:b5:4b:59:62:80:f5:cf:6b:25:0d:27:f0:
         ef:d5:77:15:5a:fa:d9:55:77:6c:c2:74:4b:ff:c2:03:1e:5a:
         dc:36:6d:bd:cb:ce:75:c0:c2:27:1c:db:21:f2:f4:df:6d:52:
         13:ee:6d:aa:c6:08:24:92:44:60:f2:c6:cc:86:70:dc:7a:7e:
         f2:01:c1:2e:fd:c7:0c:31:fe:bf:e6:aa:74:42:ad:fd:5f:1c:
         3e:15:7f:59:dc:29:89:23:36:80:00:bb:53:db:3f:7c:2c:66:
         87:e0:9f:44:25:a3:a4:57:e6:33:b4:0b:1b:95:a1:39:7a:e1:
         b7:3b:53:1d:30:2b:53:c3:94:15:b1:d2:31:01:fc:7a:c9:42:
         07:b6:f4:26:1b:5a:68:48:07:27:f5:11:56:75:b5:e4:0e:57:
         88:d9:8d:58:b4:23:80:ee:53:4c:72:57:cc:0b:39:36:80:b8:
         1d:43:4d:d1:6c:34:7e:13:43:11:3e:fb:4c:36:89:3b:ab:7e:
         57:f3:fd:c4:a0:5b:cd:6b:22:f6:ef:83:0e:af:12:fd:53:9f:
         2b:29:24:90:80:19:27:2b:65:b9:c5:58:e2:fb:ad:8b:ad:09:
         bd:0b:8c:f7:fd:1f:83:14:ab:0e:c9:0a:ac:66:2f:96:96:45:
         9e:8e:ed:89:bf:76:3b:47:59:67:2b:07:c6:8c:cc:39:0e:fc:
         29:4a:dd:5c:b4:9f:01:5f:d1:10:73:58:0c:5c:0c:4f:7c:71:
         e1:5b:db:d8:43:43:15:78:ab:22:12:45:f3:10:d0:a9:17:ab:
         3d:93:26:8a:cb:21:25:55
-----BEGIN CERTIFICATE REQUEST-----
MIIEvDCCAqQCAQAwRTEKMAgGA1UEBhMBLTEKMAgGA1UECBMBLTEKMAgGA1UEBxMB
LTERMA8GA1UEChMITW9qYWxvb3AxDDAKBgNVBAsTA1BLSTCCAiIwDQYJKoZIhvcN
AQEBBQADggIPADCCAgoCggIBAM167SFWoCcnESxGwbHCZP38Fr7y2fRQCHwrLnua
tP1Fy7v66h88WGTEOvPQuSmAGK/RSkkGxcpV0omM//gxF8TNLLpF1/3i7w/8hmoF
LDK5vEjVyEZ47hlj6wHA5efV8ZXLOmdOJjMWkEHaZIU0YZkzJi9PkJD+xp+YS3YI
Q9xCvsmxZvnTCT3AH6usDkOXQXprPJL9rgFTBs8ZsqjS8nZ/z9nEeVDjORcyoO6p
jR0y9sUh30y5ZG6egPiXLORHMnRDBxHBpc6RxnAfKoEbqO0cLRZIndkk/5IdH4XK
LCsWym3cC4mF81lA/QHgaFWFfoCUM/EVhxf92VQv1jUB1QALORrrHsWFzuayGOQH
dPAphCVQYD8s8jj3qbuRM/JXADCU4fyDgvnN2L1XMC5oaBTDi6kM3ob+03MKsXuh
nMqtsvu5c1rqLcNCn2BgWefi/K2YYlPiR7tesDQx+WyEZ8SDZeLijYGFaqgkzqGb
iDtnv20mfyAUDb+yo+a87FiwaJnYXMxJDqGZZ3tUU2MyIISl9tCx+EFoY9fhubk9
IVz14hmVn+rXQzax/186xQQ+pZ0qfa0K+6s8p6En4Efr0GT59AjI5Y8oINTpRloP
c5tOuD9QEMlqquaNiGQYBZP+25zEahWkc858wOaPl4O6k26YyLmmXwXWyp8irVMF
WWpBAgMBAAGgMjAwBgkqhkiG9w0BCQ4xIzAhMB8GA1UdEQQYMBaCFGNhLnRlc3Qu
bW9qYWxvb3Aub3JnMA0GCSqGSIb3DQEBDQUAA4ICAQA+HTaTEGfE7y+GyhL+iLnS
pt4biUFIhnD2S0JqzUIIT77Eu06lLcQ9XeYBfdFw/72P+lmOshCZJwE4qgdUv/U5
l0QWcMPeC80Bt36J3UBlz7EfL8QIkiPwVpCP4nKvJqf6iC0LYX1/7441KbyhGwak
PfMbdTsTTOeqNrajsdISXkFGff58QQcGlFV0RhxZUxQ/h7xf78NxU9yfwiFL85P5
aaYsTj6aLKcDzDgyzCyS0wsO8lBmKLtIFb3vG4+M/r8C2q3oP1kJ5XyOp4S1S1li
gPXPayUNJ/Dv1XcVWvrZVXdswnRL/8IDHlrcNm29y851wMInHNsh8vTfbVIT7m2q
xggkkkRg8sbMhnDcen7yAcEu/ccMMf6/5qp0Qq39Xxw+FX9Z3CmJIzaAALtT2z98
LGaH4J9EJaOkV+YztAsblaE5euG3O1MdMCtTw5QVsdIxAfx6yUIHtvQmG1poSAcn
9RFWdbXkDleI2Y1YtCOA7lNMclfMCzk2gLgdQ03RbDR+E0MRPvtMNok7q35X8/3E
oFvNayL274MOrxL9U58rKSSQgBknK2W5xVji+62LrQm9C4z3/R+DFKsOyQqsZi+W
lkWeju2Jv3Y7R1lnKwfGjMw5DvwpSt1ctJ8BX9EQc1gMXAxPfHHhW9vYQ0MVeKsi
EkXzENCpF6s9kyaKyyElVQ==
-----END CERTIFICATE REQUEST-----
