Certificate:
    Data:
        Version: 3 (0x2)
        Serial Number:
            19:92:d5:f9:a5:dd:58:cf:44:c1:5a:86:2c:5c:68:cf:af:f4:9b:51
    Signature Algorithm: sha512WithRSAEncryption
        Issuer: C=-, ST=-, L=-, O=Mojaloop, OU=PKI
        Validity
            Not Before: Apr 16 11:51:00 2019 GMT
            Not After : Apr 14 11:51:00 2024 GMT
        Subject: C=-, ST=-, L=-, O=Mojaloop, OU=PKI
        Subject Public Key Info:
            Public Key Algorithm: rsaEncryption
                Public-Key: (4096 bit)
                Modulus:
                    00:cd:7a:ed:21:56:a0:27:27:11:2c:46:c1:b1:c2:
                    64:fd:fc:16:be:f2:d9:f4:50:08:7c:2b:2e:7b:9a:
                    b4:fd:45:cb:bb:fa:ea:1f:3c:58:64:c4:3a:f3:d0:
                    b9:29:80:18:af:d1:4a:49:06:c5:ca:55:d2:89:8c:
                    ff:f8:31:17:c4:cd:2c:ba:45:d7:fd:e2:ef:0f:fc:
                    86:6a:05:2c:32:b9:bc:48:d5:c8:46:78:ee:19:63:
                    eb:01:c0:e5:e7:d5:f1:95:cb:3a:67:4e:26:33:16:
                    90:41:da:64:85:34:61:99:33:26:2f:4f:90:90:fe:
                    c6:9f:98:4b:76:08:43:dc:42:be:c9:b1:66:f9:d3:
                    09:3d:c0:1f:ab:ac:0e:43:97:41:7a:6b:3c:92:fd:
                    ae:01:53:06:cf:19:b2:a8:d2:f2:76:7f:cf:d9:c4:
                    79:50:e3:39:17:32:a0:ee:a9:8d:1d:32:f6:c5:21:
                    df:4c:b9:64:6e:9e:80:f8:97:2c:e4:47:32:74:43:
                    07:11:c1:a5:ce:91:c6:70:1f:2a:81:1b:a8:ed:1c:
                    2d:16:48:9d:d9:24:ff:92:1d:1f:85:ca:2c:2b:16:
                    ca:6d:dc:0b:89:85:f3:59:40:fd:01:e0:68:55:85:
                    7e:80:94:33:f1:15:87:17:fd:d9:54:2f:d6:35:01:
                    d5:00:0b:39:1a:eb:1e:c5:85:ce:e6:b2:18:e4:07:
                    74:f0:29:84:25:50:60:3f:2c:f2:38:f7:a9:bb:91:
                    33:f2:57:00:30:94:e1:fc:83:82:f9:cd:d8:bd:57:
                    30:2e:68:68:14:c3:8b:a9:0c:de:86:fe:d3:73:0a:
                    b1:7b:a1:9c:ca:ad:b2:fb:b9:73:5a:ea:2d:c3:42:
                    9f:60:60:59:e7:e2:fc:ad:98:62:53:e2:47:bb:5e:
                    b0:34:31:f9:6c:84:67:c4:83:65:e2:e2:8d:81:85:
                    6a:a8:24:ce:a1:9b:88:3b:67:bf:6d:26:7f:20:14:
                    0d:bf:b2:a3:e6:bc:ec:58:b0:68:99:d8:5c:cc:49:
                    0e:a1:99:67:7b:54:53:63:32:20:84:a5:f6:d0:b1:
                    f8:41:68:63:d7:e1:b9:b9:3d:21:5c:f5:e2:19:95:
                    9f:ea:d7:43:36:b1:ff:5f:3a:c5:04:3e:a5:9d:2a:
                    7d:ad:0a:fb:ab:3c:a7:a1:27:e0:47:eb:d0:64:f9:
                    f4:08:c8:e5:8f:28:20:d4:e9:46:5a:0f:73:9b:4e:
                    b8:3f:50:10:c9:6a:aa:e6:8d:88:64:18:05:93:fe:
                    db:9c:c4:6a:15:a4:73:ce:7c:c0:e6:8f:97:83:ba:
                    93:6e:98:c8:b9:a6:5f:05:d6:ca:9f:22:ad:53:05:
                    59:6a:41
                Exponent: 65537 (0x10001)
        X509v3 extensions:
            X509v3 Key Usage: critical
                Certificate Sign, CRL Sign
            X509v3 Basic Constraints: critical
                CA:TRUE
            X509v3 Subject Key Identifier: 
                ED:38:D3:DC:98:A0:F8:E2:56:F3:58:4C:3C:FC:19:8C:9D:5E:09:64
    Signature Algorithm: sha512WithRSAEncryption
         1e:6f:d8:a5:d2:7b:6e:ca:02:47:c0:fc:cb:24:85:e0:22:96:
         1e:6c:db:15:0d:42:01:5f:ed:55:7d:75:e0:8e:e8:04:63:08:
         a4:ce:3c:ae:b2:e5:f5:7d:cd:a0:4e:b4:bd:e7:03:d2:8b:33:
         5d:65:a0:1a:1f:7f:2a:31:fc:ec:cd:60:38:dd:8a:4a:c1:86:
         8c:bb:49:93:23:bc:d5:7f:2d:ff:f6:59:b3:17:a1:dd:a2:70:
         99:66:2f:be:d6:c0:67:e1:37:b7:8b:fc:10:d1:5b:1e:90:e5:
         e8:d9:09:d4:0c:bf:2b:07:ab:13:15:bd:c1:65:c5:ee:7b:bc:
         0f:7a:8a:3f:04:56:0e:db:19:49:cf:df:2d:1f:a3:30:50:bd:
         79:f6:dd:e2:40:b3:c1:7d:36:ba:6d:6a:86:bc:28:61:bf:b7:
         9a:67:41:82:e9:27:dc:96:1a:60:cc:aa:bf:79:ab:7b:de:82:
         ba:39:9a:91:b5:a9:4e:b9:86:6c:9a:1b:66:18:1f:2c:92:86:
         28:03:71:f6:e7:f5:e9:4e:7d:90:0f:63:8b:11:c7:6a:32:f2:
         27:ad:74:a4:e8:e5:b8:05:65:9b:2a:0b:75:bb:e7:a6:15:ed:
         46:af:a6:e3:36:e6:f6:77:37:20:01:d9:ae:05:2c:fd:90:d4:
         5a:22:9a:27:1a:46:5b:de:0c:cf:98:0b:0b:6c:3f:15:08:cd:
         57:c0:71:60:9d:4c:eb:06:6e:0c:95:05:69:75:53:63:3d:c4:
         a2:27:d5:61:a8:8e:c4:ba:26:ec:96:6f:67:94:77:c1:e6:2b:
         cb:af:66:85:d3:f8:81:49:cb:c7:45:14:69:c1:78:95:01:77:
         26:3c:22:16:41:28:cd:b8:78:d1:d6:a9:47:1a:66:73:9d:40:
         21:cb:16:4d:b3:17:88:e4:76:eb:10:1e:2c:f0:03:db:dd:db:
         4c:fd:8a:61:e2:84:81:dd:c0:47:e6:56:9a:2b:53:c6:81:8d:
         b2:af:7d:f9:3c:a7:e3:a4:a6:54:39:39:a1:2f:74:06:8b:a6:
         ca:2a:76:79:33:4a:b3:19:89:5f:21:e4:7f:e7:55:f8:2c:a7:
         40:f1:ea:b4:c8:b6:c3:3d:08:85:16:09:7b:f1:06:d2:a3:0f:
         72:85:0a:76:29:12:d1:57:00:03:98:66:ab:95:87:30:c8:04:
         24:48:f8:37:be:5a:64:23:d3:e8:92:74:8d:c5:fb:96:72:a8:
         77:99:76:9a:56:0e:5b:c8:a1:81:55:25:05:90:f7:38:d5:da:
         4d:7b:67:48:ca:8b:af:cc:eb:5d:ca:6c:18:6b:b2:60:3d:c4:
         64:57:40:c7:e6:5a:71:38
-----BEGIN CERTIFICATE-----
MIIFWjCCA0KgAwIBAgIUGZLV+aXdWM9EwVqGLFxoz6/0m1EwDQYJKoZIhvcNAQEN
BQAwRTEKMAgGA1UEBhMBLTEKMAgGA1UECBMBLTEKMAgGA1UEBxMBLTERMA8GA1UE
ChMITW9qYWxvb3AxDDAKBgNVBAsTA1BLSTAeFw0xOTA0MTYxMTUxMDBaFw0yNDA0
MTQxMTUxMDBaMEUxCjAIBgNVBAYTAS0xCjAIBgNVBAgTAS0xCjAIBgNVBAcTAS0x
ETAPBgNVBAoTCE1vamFsb29wMQwwCgYDVQQLEwNQS0kwggIiMA0GCSqGSIb3DQEB
AQUAA4ICDwAwggIKAoICAQDNeu0hVqAnJxEsRsGxwmT9/Ba+8tn0UAh8Ky57mrT9
Rcu7+uofPFhkxDrz0LkpgBiv0UpJBsXKVdKJjP/4MRfEzSy6Rdf94u8P/IZqBSwy
ubxI1chGeO4ZY+sBwOXn1fGVyzpnTiYzFpBB2mSFNGGZMyYvT5CQ/safmEt2CEPc
Qr7JsWb50wk9wB+rrA5Dl0F6azyS/a4BUwbPGbKo0vJ2f8/ZxHlQ4zkXMqDuqY0d
MvbFId9MuWRunoD4lyzkRzJ0QwcRwaXOkcZwHyqBG6jtHC0WSJ3ZJP+SHR+Fyiwr
Fspt3AuJhfNZQP0B4GhVhX6AlDPxFYcX/dlUL9Y1AdUACzka6x7Fhc7mshjkB3Tw
KYQlUGA/LPI496m7kTPyVwAwlOH8g4L5zdi9VzAuaGgUw4upDN6G/tNzCrF7oZzK
rbL7uXNa6i3DQp9gYFnn4vytmGJT4ke7XrA0MflshGfEg2Xi4o2BhWqoJM6hm4g7
Z79tJn8gFA2/sqPmvOxYsGiZ2FzMSQ6hmWd7VFNjMiCEpfbQsfhBaGPX4bm5PSFc
9eIZlZ/q10M2sf9fOsUEPqWdKn2tCvurPKehJ+BH69Bk+fQIyOWPKCDU6UZaD3Ob
Trg/UBDJaqrmjYhkGAWT/tucxGoVpHPOfMDmj5eDupNumMi5pl8F1sqfIq1TBVlq
QQIDAQABo0IwQDAOBgNVHQ8BAf8EBAMCAQYwDwYDVR0TAQH/BAUwAwEB/zAdBgNV
HQ4EFgQU7TjT3Jig+OJW81hMPPwZjJ1eCWQwDQYJKoZIhvcNAQENBQADggIBAB5v
2KXSe27KAkfA/MskheAilh5s2xUNQgFf7VV9deCO6ARjCKTOPK6y5fV9zaBOtL3n
A9KLM11loBoffyox/OzNYDjdikrBhoy7SZMjvNV/Lf/2WbMXod2icJlmL77WwGfh
N7eL/BDRWx6Q5ejZCdQMvysHqxMVvcFlxe57vA96ij8EVg7bGUnP3y0fozBQvXn2
3eJAs8F9Nrptaoa8KGG/t5pnQYLpJ9yWGmDMqr95q3vegro5mpG1qU65hmyaG2YY
HyyShigDcfbn9elOfZAPY4sRx2oy8ietdKTo5bgFZZsqC3W756YV7UavpuM25vZ3
NyAB2a4FLP2Q1FoimicaRlveDM+YCwtsPxUIzVfAcWCdTOsGbgyVBWl1U2M9xKIn
1WGojsS6JuyWb2eUd8HmK8uvZoXT+IFJy8dFFGnBeJUBdyY8IhZBKM24eNHWqUca
ZnOdQCHLFk2zF4jkdusQHizwA9vd20z9imHihIHdwEfmVporU8aBjbKvffk8p+Ok
plQ5OaEvdAaLpsoqdnkzSrMZiV8h5H/nVfgsp0Dx6rTItsM9CIUWCXvxBtKjD3KF
CnYpEtFXAAOYZquVhzDIBCRI+De+WmQj0+iSdI3F+5ZyqHeZdppWDlvIoYFVJQWQ
9zjV2k17Z0jKi6/M613KbBhrsmA9xGRXQMfmWnE4
-----END CERTIFICATE-----
