Certificate:
    Data:
        Version: 3 (0x2)
        Serial Number:
            4a:20:b5:f9:11:ed:db:44:a5:d6:26:9a:64:e6:8c:81:6f:7c:a5:80
    Signature Algorithm: sha512WithRSAEncryption
        Issuer: C=-, ST=-, L=-, O=Mojaloop, OU=PKI
        Validity
            Not Before: Apr 16 13:10:00 2019 GMT
            Not After : Apr 15 13:10:00 2020 GMT
        Subject: C=-, ST=-, L=-, O=Mojaloop, OU=DFSP 1
        Subject Public Key Info:
            Public Key Algorithm: rsaEncryption
                Public-Key: (4096 bit)
                Modulus:
                    00:af:c5:ea:e2:53:ff:c8:d2:03:3e:f3:35:f1:f9:
                    08:44:b0:26:2d:e8:44:08:0e:e0:5e:ac:ec:8b:05:
                    17:c0:c7:36:75:c5:fb:ac:d2:c5:ec:31:8a:cd:9f:
                    fb:44:96:fc:86:66:9a:bc:0d:3e:6e:40:5b:12:3d:
                    05:d7:c7:7b:10:1d:6c:99:d2:05:b8:66:18:05:fc:
                    49:cd:3f:bd:48:20:47:d8:08:33:2e:69:8f:05:96:
                    10:9d:d0:62:73:63:01:ee:a1:6e:05:b8:81:51:ed:
                    18:06:90:25:de:e5:3d:25:f6:a9:a2:f6:6b:81:0c:
                    4d:b6:31:95:a4:00:80:ee:00:21:c4:cd:5e:42:e7:
                    9c:6c:c8:b3:d4:69:32:4e:cb:29:11:1c:32:cd:0c:
                    d1:a4:a2:9e:95:57:5c:69:e6:02:f5:b4:8e:88:20:
                    57:ed:bd:53:4b:71:38:0f:5f:b1:20:f7:90:49:6b:
                    9d:8f:d1:10:35:36:19:52:a6:b4:a1:f3:89:8d:e5:
                    2c:be:45:31:4a:04:26:a7:8d:0c:e2:0a:50:77:95:
                    8d:94:8c:41:0c:0e:a2:67:f8:31:17:ac:9d:01:c2:
                    62:ff:36:46:0d:fd:52:bb:df:36:02:ac:ed:b1:de:
                    5e:04:1f:b5:aa:b4:85:e4:6d:18:d7:4b:56:8f:a9:
                    eb:36:03:ac:aa:14:da:ae:05:dc:bc:0e:a1:0c:f6:
                    82:58:f9:fd:6d:9a:92:38:6f:6f:4c:5a:0c:8e:8f:
                    63:e5:e2:06:cb:ea:c0:ce:7a:eb:3c:e8:1f:5c:ea:
                    24:c9:50:5e:12:51:bd:fa:2a:db:a1:7b:0a:c4:74:
                    62:6e:3d:cd:c5:77:e7:7e:50:70:18:8f:b8:ed:37:
                    6a:7f:2d:9f:77:92:eb:79:c6:a4:79:42:15:46:a9:
                    ab:ad:00:21:4e:9b:77:1d:73:d9:9e:54:33:f9:5c:
                    ed:9d:5f:fa:6c:73:9a:f8:93:bd:98:b4:06:44:0c:
                    ae:ed:fc:80:40:c3:78:9a:f6:66:86:4b:9c:b4:50:
                    2f:44:1a:39:b5:4a:1e:f6:6d:f5:3b:4d:a9:b9:6e:
                    2b:52:ff:91:63:da:4e:16:04:30:da:75:e3:36:67:
                    33:a9:d7:96:92:f9:23:3f:27:57:70:d9:f6:32:25:
                    48:bd:80:c7:e2:3a:b5:1d:bb:f6:a6:42:8f:d1:5e:
                    52:53:f6:21:08:1c:66:47:53:a9:de:0c:e9:80:31:
                    60:43:4d:1d:df:e6:4b:82:91:f7:4f:ea:a3:4f:27:
                    66:99:69:dc:21:e3:2f:7c:33:39:f3:b6:9d:f4:2e:
                    dd:f0:a8:37:ec:39:78:6c:5c:09:58:0e:4d:fa:91:
                    50:9e:23
                Exponent: 65537 (0x10001)
        X509v3 extensions:
            X509v3 Key Usage: critical
                Digital Signature, Key Encipherment
            X509v3 Extended Key Usage: 
                TLS Web Server Authentication, TLS Web Client Authentication
            X509v3 Basic Constraints: critical
                CA:FALSE
            X509v3 Subject Key Identifier: 
                07:AE:EB:31:32:94:79:99:FE:70:47:6F:95:EA:5C:B7:45:34:3B:67
            X509v3 Authority Key Identifier: 
                keyid:ED:38:D3:DC:98:A0:F8:E2:56:F3:58:4C:3C:FC:19:8C:9D:5E:09:64

            X509v3 Subject Alternative Name: 
                DNS:dfsp1.test.mojaloop.org
    Signature Algorithm: sha512WithRSAEncryption
         2d:e9:a5:49:b1:a0:29:3c:30:1e:53:93:a3:a7:e3:2b:b9:82:
         4c:4e:4b:06:31:e6:95:f9:f2:8a:fa:3b:fd:3d:6e:5d:26:4b:
         13:fc:bc:61:3c:53:4e:30:04:db:a8:bf:33:86:d3:ad:29:94:
         c1:ab:a5:cd:27:4f:02:04:52:73:68:89:c9:73:85:5f:2f:05:
         3f:13:a9:a2:ec:f4:8b:c3:3d:fc:29:d5:81:d5:a9:88:41:45:
         db:bc:ad:a7:c7:b2:d0:46:15:27:d8:eb:a3:65:39:49:77:8b:
         55:fb:a5:82:5b:04:8a:74:60:fb:d0:a7:36:b6:a7:b7:38:d0:
         56:4a:7b:f3:94:4c:98:72:e8:f0:c8:99:c5:bf:2d:03:c0:a8:
         c7:f6:c5:6e:16:e4:e2:35:55:c2:b9:9d:84:56:70:55:a4:84:
         01:db:eb:14:a3:9b:21:a3:53:f8:45:10:be:c4:dc:e6:d4:72:
         aa:00:2e:fe:91:87:b3:ba:7f:6e:f2:65:b6:b3:4a:4a:b8:e9:
         ca:5d:38:7f:0b:5b:6c:91:20:02:39:e0:82:38:99:cb:67:96:
         19:aa:3e:ec:fd:94:2b:5f:60:45:b4:a5:3e:05:9e:f5:1e:b8:
         2f:a4:cb:c0:fb:ab:63:46:13:37:79:5f:8f:80:76:2d:89:b5:
         94:c9:e4:df:92:12:1b:eb:63:cf:33:38:62:4f:29:b5:b8:46:
         35:c1:12:d2:2a:7f:e4:77:29:58:d5:ac:db:3d:d7:e7:26:05:
         d2:fa:e4:70:48:fe:ca:3c:75:ba:1e:4e:8a:77:60:47:fe:48:
         a7:b9:ab:34:ee:3b:a2:65:94:2e:d7:cf:92:ab:7c:48:ce:31:
         8b:01:47:19:3f:9b:f0:d0:91:4d:a8:ca:cc:ad:2d:27:d4:9b:
         22:85:94:99:3f:51:ed:1e:04:ba:c2:92:1a:03:77:26:1c:51:
         e8:8b:3b:f4:db:b5:d7:d5:49:e4:7b:12:3d:14:73:79:49:ce:
         f2:82:4b:f0:ae:b0:c4:b4:be:cb:db:74:d0:d6:b8:82:e1:50:
         62:73:17:40:95:e5:d3:b8:32:80:35:77:87:e0:5d:cc:df:86:
         16:70:1a:02:0b:99:9e:27:7f:db:85:89:99:d5:2a:ad:80:13:
         e3:cd:e0:59:fe:1e:ca:a2:ba:7a:6b:d5:61:ec:c0:59:1a:70:
         65:49:6e:9d:63:8f:31:2a:df:94:80:1b:78:a8:df:cf:7c:15:
         d6:4a:3d:65:79:60:a3:8c:5f:72:3c:df:ef:60:79:b8:ad:ec:
         75:31:4c:a4:73:2f:fd:1b:9a:18:d5:f6:39:28:02:6b:16:a1:
         fd:78:66:08:eb:87:96:5e
-----BEGIN CERTIFICATE-----
MIIFwDCCA6igAwIBAgIUSiC1+RHt20Sl1iaaZOaMgW98pYAwDQYJKoZIhvcNAQEN
BQAwRTEKMAgGA1UEBhMBLTEKMAgGA1UECBMBLTEKMAgGA1UEBxMBLTERMA8GA1UE
ChMITW9qYWxvb3AxDDAKBgNVBAsTA1BLSTAeFw0xOTA0MTYxMzEwMDBaFw0yMDA0
MTUxMzEwMDBaMEgxCjAIBgNVBAYTAS0xCjAIBgNVBAgTAS0xCjAIBgNVBAcTAS0x
ETAPBgNVBAoTCE1vamFsb29wMQ8wDQYDVQQLEwZERlNQIDEwggIiMA0GCSqGSIb3
DQEBAQUAA4ICDwAwggIKAoICAQCvxeriU//I0gM+8zXx+QhEsCYt6EQIDuBerOyL
BRfAxzZ1xfus0sXsMYrNn/tElvyGZpq8DT5uQFsSPQXXx3sQHWyZ0gW4ZhgF/EnN
P71IIEfYCDMuaY8FlhCd0GJzYwHuoW4FuIFR7RgGkCXe5T0l9qmi9muBDE22MZWk
AIDuACHEzV5C55xsyLPUaTJOyykRHDLNDNGkop6VV1xp5gL1tI6IIFftvVNLcTgP
X7Eg95BJa52P0RA1NhlSprSh84mN5Sy+RTFKBCanjQziClB3lY2UjEEMDqJn+DEX
rJ0BwmL/NkYN/VK73zYCrO2x3l4EH7WqtIXkbRjXS1aPqes2A6yqFNquBdy8DqEM
9oJY+f1tmpI4b29MWgyOj2Pl4gbL6sDOeus86B9c6iTJUF4SUb36KtuhewrEdGJu
Pc3Fd+d+UHAYj7jtN2p/LZ93kut5xqR5QhVGqautACFOm3cdc9meVDP5XO2dX/ps
c5r4k72YtAZEDK7t/IBAw3ia9maGS5y0UC9EGjm1Sh72bfU7Tam5bitS/5Fj2k4W
BDDadeM2ZzOp15aS+SM/J1dw2fYyJUi9gMfiOrUdu/amQo/RXlJT9iEIHGZHU6ne
DOmAMWBDTR3f5kuCkfdP6qNPJ2aZadwh4y98Mznztp30Lt3wqDfsOXhsXAlYDk36
kVCeIwIDAQABo4GkMIGhMA4GA1UdDwEB/wQEAwIFoDAdBgNVHSUEFjAUBggrBgEF
BQcDAQYIKwYBBQUHAwIwDAYDVR0TAQH/BAIwADAdBgNVHQ4EFgQUB67rMTKUeZn+
cEdvlepct0U0O2cwHwYDVR0jBBgwFoAU7TjT3Jig+OJW81hMPPwZjJ1eCWQwIgYD
VR0RBBswGYIXZGZzcDEudGVzdC5tb2phbG9vcC5vcmcwDQYJKoZIhvcNAQENBQAD
ggIBAC3ppUmxoCk8MB5Tk6On4yu5gkxOSwYx5pX58or6O/09bl0mSxP8vGE8U04w
BNuovzOG060plMGrpc0nTwIEUnNoiclzhV8vBT8TqaLs9IvDPfwp1YHVqYhBRdu8
rafHstBGFSfY66NlOUl3i1X7pYJbBIp0YPvQpza2p7c40FZKe/OUTJhy6PDImcW/
LQPAqMf2xW4W5OI1VcK5nYRWcFWkhAHb6xSjmyGjU/hFEL7E3ObUcqoALv6Rh7O6
f27yZbazSkq46cpdOH8LW2yRIAI54II4mctnlhmqPuz9lCtfYEW0pT4FnvUeuC+k
y8D7q2NGEzd5X4+Adi2JtZTJ5N+SEhvrY88zOGJPKbW4RjXBEtIqf+R3KVjVrNs9
1+cmBdL65HBI/so8dboeTop3YEf+SKe5qzTuO6JllC7Xz5KrfEjOMYsBRxk/m/DQ
kU2oysytLSfUmyKFlJk/Ue0eBLrCkhoDdyYcUeiLO/TbtdfVSeR7Ej0Uc3lJzvKC
S/CusMS0vsvbdNDWuILhUGJzF0CV5dO4MoA1d4fgXczfhhZwGgILmZ4nf9uFiZnV
Kq2AE+PN4Fn+Hsqiunpr1WHswFkacGVJbp1jjzEq35SAG3io3898FdZKPWV5YKOM
X3I83+9gebit7HUxTKRzL/0bmhjV9jkoAmsWof14Zgjrh5Ze
-----END CERTIFICATE-----
