Certificate Request:
    Data:
        Version: 0 (0x0)
        Subject: C=-, ST=-, L=-, O=Mojaloop, OU=DFSP 1
        Subject Public Key Info:
            Public Key Algorithm: rsaEncryption
                Public-Key: (4096 bit)
                Modulus:
                    00:af:c5:ea:e2:53:ff:c8:d2:03:3e:f3:35:f1:f9:
                    08:44:b0:26:2d:e8:44:08:0e:e0:5e:ac:ec:8b:05:
                    17:c0:c7:36:75:c5:fb:ac:d2:c5:ec:31:8a:cd:9f:
                    fb:44:96:fc:86:66:9a:bc:0d:3e:6e:40:5b:12:3d:
                    05:d7:c7:7b:10:1d:6c:99:d2:05:b8:66:18:05:fc:
                    49:cd:3f:bd:48:20:47:d8:08:33:2e:69:8f:05:96:
                    10:9d:d0:62:73:63:01:ee:a1:6e:05:b8:81:51:ed:
                    18:06:90:25:de:e5:3d:25:f6:a9:a2:f6:6b:81:0c:
                    4d:b6:31:95:a4:00:80:ee:00:21:c4:cd:5e:42:e7:
                    9c:6c:c8:b3:d4:69:32:4e:cb:29:11:1c:32:cd:0c:
                    d1:a4:a2:9e:95:57:5c:69:e6:02:f5:b4:8e:88:20:
                    57:ed:bd:53:4b:71:38:0f:5f:b1:20:f7:90:49:6b:
                    9d:8f:d1:10:35:36:19:52:a6:b4:a1:f3:89:8d:e5:
                    2c:be:45:31:4a:04:26:a7:8d:0c:e2:0a:50:77:95:
                    8d:94:8c:41:0c:0e:a2:67:f8:31:17:ac:9d:01:c2:
                    62:ff:36:46:0d:fd:52:bb:df:36:02:ac:ed:b1:de:
                    5e:04:1f:b5:aa:b4:85:e4:6d:18:d7:4b:56:8f:a9:
                    eb:36:03:ac:aa:14:da:ae:05:dc:bc:0e:a1:0c:f6:
                    82:58:f9:fd:6d:9a:92:38:6f:6f:4c:5a:0c:8e:8f:
                    63:e5:e2:06:cb:ea:c0:ce:7a:eb:3c:e8:1f:5c:ea:
                    24:c9:50:5e:12:51:bd:fa:2a:db:a1:7b:0a:c4:74:
                    62:6e:3d:cd:c5:77:e7:7e:50:70:18:8f:b8:ed:37:
                    6a:7f:2d:9f:77:92:eb:79:c6:a4:79:42:15:46:a9:
                    ab:ad:00:21:4e:9b:77:1d:73:d9:9e:54:33:f9:5c:
                    ed:9d:5f:fa:6c:73:9a:f8:93:bd:98:b4:06:44:0c:
                    ae:ed:fc:80:40:c3:78:9a:f6:66:86:4b:9c:b4:50:
                    2f:44:1a:39:b5:4a:1e:f6:6d:f5:3b:4d:a9:b9:6e:
                    2b:52:ff:91:63:da:4e:16:04:30:da:75:e3:36:67:
                    33:a9:d7:96:92:f9:23:3f:27:57:70:d9:f6:32:25:
                    48:bd:80:c7:e2:3a:b5:1d:bb:f6:a6:42:8f:d1:5e:
                    52:53:f6:21:08:1c:66:47:53:a9:de:0c:e9:80:31:
                    60:43:4d:1d:df:e6:4b:82:91:f7:4f:ea:a3:4f:27:
                    66:99:69:dc:21:e3:2f:7c:33:39:f3:b6:9d:f4:2e:
                    dd:f0:a8:37:ec:39:78:6c:5c:09:58:0e:4d:fa:91:
                    50:9e:23
                Exponent: 65537 (0x10001)
        Attributes:
        Requested Extensions:
            X509v3 Subject Alternative Name: 
                DNS:dfsp1.test.mojaloop.org
    Signature Algorithm: sha512WithRSAEncryption
         68:2d:b8:18:98:2d:d4:c9:c1:06:21:b2:11:5f:c6:0d:ce:bd:
         68:45:ce:06:91:7e:48:ec:4f:dd:5a:f1:14:26:73:7c:b0:c5:
         6c:d3:7a:46:de:fd:38:c8:52:47:23:3a:d6:8b:42:51:d4:8e:
         0c:65:b4:f7:49:2f:35:2b:7d:5c:13:b4:45:4a:46:14:60:80:
         53:86:98:ee:5b:5d:8f:9d:75:77:32:52:57:94:d7:70:64:8d:
         a7:ae:29:8e:e3:81:76:d1:ce:92:70:27:6f:d9:00:49:16:42:
         2d:44:9a:ea:d1:11:f7:71:f7:bf:55:b5:ea:b5:f0:c6:2e:36:
         ba:ce:4e:7a:4f:a2:b8:99:41:fc:62:45:5f:4e:c2:46:97:a0:
         e6:f7:59:b8:97:a3:71:2d:f8:f0:a6:54:03:c9:ca:c8:d1:da:
         e0:0f:3e:1a:05:f4:1d:14:2e:c1:03:4d:25:df:1b:cb:a7:19:
         30:43:d5:77:e7:e8:ef:1d:8b:93:63:f8:95:87:4e:19:4b:75:
         4d:bb:95:df:cd:4e:08:e6:03:38:cf:12:41:5b:4b:b1:45:63:
         15:b4:7b:dd:94:7f:d7:95:bc:e7:55:8c:c5:11:55:fe:d9:17:
         ee:8b:2e:9b:44:e9:0c:fc:e5:29:53:dc:be:39:97:2f:11:d8:
         14:e8:bd:13:36:43:71:5f:b3:a6:8f:b3:98:41:80:47:8b:19:
         1f:5b:f1:b5:b0:be:b1:ab:a4:46:39:d2:a1:e8:7d:d8:b5:0b:
         09:f9:ec:48:01:28:4c:f5:fa:31:2c:a3:2f:7e:e0:ad:ba:85:
         c9:cf:d3:b6:c0:82:9b:30:02:2b:cb:d0:d7:ed:23:8f:14:45:
         c1:47:93:13:5d:e5:2d:34:d6:98:6c:6f:bf:10:1e:61:a5:50:
         9b:08:c8:be:cf:75:56:13:e0:31:e6:50:49:89:23:6f:d5:c1:
         dd:87:73:54:c1:59:41:25:72:a9:9c:c6:06:24:99:29:f0:b9:
         fd:03:f5:bf:20:9d:e7:4b:79:4a:d6:db:64:79:de:5c:43:4e:
         f4:77:6e:e7:73:b6:39:d2:f5:c5:b9:84:77:60:3f:70:4c:df:
         a5:df:b3:94:0c:ce:5c:65:9c:0f:ad:28:0c:ee:b8:8b:5f:7e:
         7b:0e:ee:17:b1:27:00:97:b8:61:07:44:bc:a5:ae:7e:3b:08:
         cd:55:f4:14:8e:12:ff:90:41:8c:93:36:1f:d7:68:d0:47:73:
         7f:4f:c0:46:b3:2c:8f:5f:f9:fc:46:84:e8:a1:e9:98:fc:78:
         07:b6:a3:ad:10:e9:3b:be:d9:82:3f:0f:37:71:f9:f5:43:7a:
         20:27:3d:05:bb:c2:14:3f
-----BEGIN CERTIFICATE REQUEST-----
MIIEwjCCAqoCAQAwSDEKMAgGA1UEBhMBLTEKMAgGA1UECBMBLTEKMAgGA1UEBxMB
LTERMA8GA1UEChMITW9qYWxvb3AxDzANBgNVBAsTBkRGU1AgMTCCAiIwDQYJKoZI
hvcNAQEBBQADggIPADCCAgoCggIBAK/F6uJT/8jSAz7zNfH5CESwJi3oRAgO4F6s
7IsFF8DHNnXF+6zSxewxis2f+0SW/IZmmrwNPm5AWxI9BdfHexAdbJnSBbhmGAX8
Sc0/vUggR9gIMy5pjwWWEJ3QYnNjAe6hbgW4gVHtGAaQJd7lPSX2qaL2a4EMTbYx
laQAgO4AIcTNXkLnnGzIs9RpMk7LKREcMs0M0aSinpVXXGnmAvW0joggV+29U0tx
OA9fsSD3kElrnY/REDU2GVKmtKHziY3lLL5FMUoEJqeNDOIKUHeVjZSMQQwOomf4
MResnQHCYv82Rg39UrvfNgKs7bHeXgQftaq0heRtGNdLVo+p6zYDrKoU2q4F3LwO
oQz2glj5/W2akjhvb0xaDI6PY+XiBsvqwM566zzoH1zqJMlQXhJRvfoq26F7CsR0
Ym49zcV3535QcBiPuO03an8tn3eS63nGpHlCFUapq60AIU6bdx1z2Z5UM/lc7Z1f
+mxzmviTvZi0BkQMru38gEDDeJr2ZoZLnLRQL0QaObVKHvZt9TtNqbluK1L/kWPa
ThYEMNp14zZnM6nXlpL5Iz8nV3DZ9jIlSL2Ax+I6tR279qZCj9FeUlP2IQgcZkdT
qd4M6YAxYENNHd/mS4KR90/qo08nZplp3CHjL3wzOfO2nfQu3fCoN+w5eGxcCVgO
TfqRUJ4jAgMBAAGgNTAzBgkqhkiG9w0BCQ4xJjAkMCIGA1UdEQQbMBmCF2Rmc3Ax
LnRlc3QubW9qYWxvb3Aub3JnMA0GCSqGSIb3DQEBDQUAA4ICAQBoLbgYmC3UycEG
IbIRX8YNzr1oRc4GkX5I7E/dWvEUJnN8sMVs03pG3v04yFJHIzrWi0JR1I4MZbT3
SS81K31cE7RFSkYUYIBThpjuW12PnXV3MlJXlNdwZI2nrimO44F20c6ScCdv2QBJ
FkItRJrq0RH3cfe/VbXqtfDGLja6zk56T6K4mUH8YkVfTsJGl6Dm91m4l6NxLfjw
plQDycrI0drgDz4aBfQdFC7BA00l3xvLpxkwQ9V35+jvHYuTY/iVh04ZS3VNu5Xf
zU4I5gM4zxJBW0uxRWMVtHvdlH/XlbznVYzFEVX+2Rfuiy6bROkM/OUpU9y+OZcv
EdgU6L0TNkNxX7Omj7OYQYBHixkfW/G1sL6xq6RGOdKh6H3YtQsJ+exIAShM9fox
LKMvfuCtuoXJz9O2wIKbMAIry9DX7SOPFEXBR5MTXeUtNNaYbG+/EB5hpVCbCMi+
z3VWE+Ax5lBJiSNv1cHdh3NUwVlBJXKpnMYGJJkp8Ln9A/W/IJ3nS3lK1ttked5c
Q070d27nc7Y50vXFuYR3YD9wTN+l37OUDM5cZZwPrSgM7riLX357Du4XsScAl7hh
B0S8pa5+OwjNVfQUjhL/kEGMkzYf12jQR3N/T8BGsyyPX/n8RoTooemY/HgHtqOt
EOk7vtmCPw83cfn1Q3ogJz0Fu8IUPw==
-----END CERTIFICATE REQUEST-----
