Certificate:
    Data:
        Version: 3 (0x2)
        Serial Number: 2 (0x2)
    Signature Algorithm: sha256WithRSAEncryption
        Issuer: C=FR, O=Orange, OU=FR 89 380129866, CN=Orange Internal G2 Root CA
        Validity
            Not Before: May  3 13:20:44 2016 GMT
            Not After : May  3 13:20:44 2036 GMT
        Subject: C=FR, O=Orange, OU=FR 89 380129866, CN=Orange Internal G2 Server CA
        Subject Public Key Info:
            Public Key Algorithm: rsaEncryption
                Public-Key: (4096 bit)
                Modulus:
                    00:98:f6:31:fe:9e:23:0e:21:9a:58:8d:b9:02:89:
                    5f:83:00:b6:a7:f7:c8:db:4f:49:8f:1f:be:15:f2:
                    a7:15:bf:4e:7c:50:ba:e9:6b:a7:cb:6c:e2:03:ed:
                    ae:b8:f5:d6:38:8d:75:f0:31:9f:85:f4:b8:e5:dc:
                    9f:fc:16:28:da:fe:f4:90:c8:88:bd:92:35:14:de:
                    69:71:a0:83:a5:84:93:c4:69:96:c5:c6:a2:56:6f:
                    01:23:31:48:4f:b1:d0:80:ae:b5:8d:87:89:ae:c4:
                    eb:ce:85:18:02:06:55:9c:5f:a9:65:98:1b:d3:84:
                    b2:f9:27:55:72:d3:56:54:a2:ae:5d:fc:79:f5:78:
                    97:aa:9a:b6:59:2c:14:2d:bf:19:95:81:ec:15:65:
                    24:8c:9c:69:68:f6:18:ce:d8:75:04:fa:31:6d:87:
                    53:71:fd:9a:97:2a:02:b2:98:43:b8:ac:92:32:40:
                    a5:0d:21:56:a8:06:55:5c:99:9d:01:0d:87:c0:45:
                    2f:80:bb:7b:72:90:18:08:f5:da:b3:ef:55:39:c7:
                    93:20:6f:17:01:9b:b9:de:0a:0c:2f:9d:a5:ee:e7:
                    87:a9:8e:37:e5:90:8e:79:93:8b:16:a9:8d:50:41:
                    98:f7:35:75:2b:fe:23:24:3c:a8:d0:ae:7f:2b:ac:
                    73:72:04:60:b3:52:b2:5a:34:ff:da:52:40:b0:41:
                    bb:8f:b3:f5:af:52:ad:62:98:d9:cb:5f:3a:d0:90:
                    7d:9c:cf:30:60:fd:0e:ea:c2:a5:1e:87:76:8c:24:
                    0e:6c:0c:e7:ac:a4:4d:9d:85:14:19:89:64:75:7a:
                    7f:33:a3:1e:8d:23:eb:42:da:2e:6b:f3:6d:4a:7e:
                    61:f4:50:47:ca:6b:f0:18:16:2d:96:3c:77:b2:bb:
                    10:4c:ee:a9:c3:11:3a:e7:78:7f:e1:0a:2e:21:9d:
                    ca:7f:b4:f0:9b:0e:82:2d:2e:77:66:c9:5e:a6:5a:
                    41:71:9e:33:9b:a2:ba:f0:3a:3f:f1:94:6f:7e:72:
                    2b:d6:19:3d:f3:42:e6:23:37:f8:69:eb:c0:2f:1f:
                    de:09:50:78:1f:3b:29:cc:e5:6a:f0:21:31:09:58:
                    39:05:77:55:e2:3f:41:48:79:87:ea:b5:7c:3d:80:
                    0c:77:15:cb:cf:2b:7d:b9:63:0e:56:04:23:26:75:
                    a0:e2:ae:87:f1:17:23:27:fd:4d:90:01:a8:08:e8:
                    05:b9:a2:6e:d1:ff:e3:4b:2a:24:7c:7a:f7:0a:b8:
                    a8:15:9e:f3:a5:9e:bb:72:ce:c3:cb:3e:19:7e:c1:
                    03:57:5a:26:ed:68:ec:89:0c:d1:e2:d6:52:a7:ab:
                    30:5d:73
                Exponent: 65537 (0x10001)
        X509v3 extensions:
            X509v3 Basic Constraints: critical
                CA:TRUE
            X509v3 Key Usage: critical
                Certificate Sign, CRL Sign
            X509v3 Subject Key Identifier:
                BC:3D:E4:A4:C7:BC:8B:31:0B:55:E2:C3:07:A2:A2:F8:DB:D7:BB:70
            X509v3 Authority Key Identifier:
                keyid:C6:38:DF:A4:DA:89:C3:8C:1B:4A:4B:65:07:25:AF:B3:D4:B6:47:82

            X509v3 CRL Distribution Points:

                Full Name:
                  URI:http://pki-crl.itn.ftgroup/crl/orangeinternalg2-root.crl

                Full Name:
                  URI:http://pki.orange.com/crl/orangeinternalg2-root.crl

            X509v3 Certificate Policies:
                Policy: 1.2.250.1.16.12.10.1.1

    Signature Algorithm: sha256WithRSAEncryption
         43:3a:c0:68:11:e5:6e:6f:2c:15:33:5a:2c:29:bd:d2:29:a3:
         b0:3a:e9:0a:b8:b0:4c:05:77:b3:16:85:31:7c:6e:a1:03:88:
         37:b7:eb:73:eb:6e:94:4a:b5:01:36:4d:89:c6:e2:46:a1:c9:
         ab:d0:67:21:cd:4c:1a:ef:c0:87:3c:6f:14:c0:40:8c:19:e3:
         f3:fc:2a:01:8d:06:b0:5a:f9:d9:ac:58:40:7c:20:00:db:3d:
         38:8b:92:c3:ca:33:df:fc:f5:ff:a4:ff:e3:62:6d:2b:e5:a5:
         21:2f:eb:99:a9:53:48:9a:9a:d8:21:1e:fd:f4:55:40:9a:79:
         61:c3:b4:53:59:88:54:76:ad:70:ca:bb:67:d6:15:63:a2:bc:
         03:b8:5b:ee:a4:ac:ec:63:b7:e9:4e:e1:4a:d1:6d:ef:6b:39:
         fb:e7:dd:1b:eb:39:20:38:b6:97:a0:8c:4d:99:9e:95:b8:63:
         b3:12:4b:fc:0f:6e:f3:2a:c5:27:19:e2:00:7b:39:fa:29:30:
         3b:e3:28:2f:66:41:0b:ed:00:26:df:17:b6:3c:9e:df:6f:ff:
         2c:60:32:bd:a8:b5:8c:9e:14:e7:4d:70:8c:1b:ef:75:bb:a5:
         d7:15:40:45:5f:ec:1e:b6:12:13:e8:6f:0c:4b:5f:1d:c4:a7:
         f7:61:f8:cc:2f:42:d8:03:4c:18:6c:72:91:b0:cb:59:b5:5f:
         aa:61:96:e4:8c:f8:51:60:84:bf:a9:f8:e7:54:1c:90:c2:4d:
         24:8e:fb:e3:7a:9e:51:cd:00:1d:d3:2d:3c:3b:71:f8:8b:40:
         c6:96:94:21:72:0d:47:d2:ea:a3:77:ab:59:e7:d8:2d:29:de:
         ee:f8:bc:e9:07:6a:0a:fc:07:5a:9c:e3:b8:82:7d:0d:73:93:
         e6:a4:42:37:43:3c:e7:d0:00:64:54:41:42:7e:73:8c:f3:b5:
         b7:2b:ed:c1:bf:7f:d2:8d:40:8c:be:4d:00:c7:3c:f2:a4:00:
         9b:19:22:0b:df:d0:cc:32:fb:2d:8c:63:2a:09:30:09:6c:7e:
         0d:f2:45:ff:65:de:f7:36:f7:cc:6b:d3:eb:13:a3:20:42:cc:
         42:13:70:9d:4d:fb:10:c7:b8:85:29:e7:e1:d2:41:7f:4c:8d:
         ab:88:37:46:dd:cc:98:51:42:0f:2e:98:13:73:c6:ae:d7:d0:
         fc:25:30:2c:f2:5b:f4:1a:ab:a2:a7:b8:af:26:0f:b1:52:a9:
         29:ef:bb:d5:f1:0e:29:2f:22:1e:51:52:82:01:99:b9:c6:7a:
         dd:62:92:ca:20:52:d6:c2:6d:57:9a:8c:13:47:7f:50:ae:3f:
         fb:81:53:3f:b1:5c:5e:67
-----BEGIN CERTIFICATE-----
MIIGPTCCBCWgAwIBAgIBAjANBgkqhkiG9w0BAQsFADBdMQswCQYDVQQGEwJGUjEP
MA0GA1UECgwGT3JhbmdlMRgwFgYDVQQLDA9GUiA4OSAzODAxMjk4NjYxIzAhBgNV
BAMMGk9yYW5nZSBJbnRlcm5hbCBHMiBSb290IENBMB4XDTE2MDUwMzEzMjA0NFoX
DTM2MDUwMzEzMjA0NFowXzELMAkGA1UEBhMCRlIxDzANBgNVBAoMBk9yYW5nZTEY
MBYGA1UECwwPRlIgODkgMzgwMTI5ODY2MSUwIwYDVQQDDBxPcmFuZ2UgSW50ZXJu
YWwgRzIgU2VydmVyIENBMIICIjANBgkqhkiG9w0BAQEFAAOCAg8AMIICCgKCAgEA
mPYx/p4jDiGaWI25AolfgwC2p/fI209Jjx++FfKnFb9OfFC66Wuny2ziA+2uuPXW
OI118DGfhfS45dyf/BYo2v70kMiIvZI1FN5pcaCDpYSTxGmWxcaiVm8BIzFIT7HQ
gK61jYeJrsTrzoUYAgZVnF+pZZgb04Sy+SdVctNWVKKuXfx59XiXqpq2WSwULb8Z
lYHsFWUkjJxpaPYYzth1BPoxbYdTcf2alyoCsphDuKySMkClDSFWqAZVXJmdAQ2H
wEUvgLt7cpAYCPXas+9VOceTIG8XAZu53goML52l7ueHqY435ZCOeZOLFqmNUEGY
9zV1K/4jJDyo0K5/K6xzcgRgs1KyWjT/2lJAsEG7j7P1r1KtYpjZy1860JB9nM8w
YP0O6sKlHod2jCQObAznrKRNnYUUGYlkdXp/M6MejSPrQtoua/NtSn5h9FBHymvw
GBYtljx3srsQTO6pwxE653h/4QouIZ3Kf7Twmw6CLS53ZsleplpBcZ4zm6K68Do/
8ZRvfnIr1hk980LmIzf4aevALx/eCVB4HzspzOVq8CExCVg5BXdV4j9BSHmH6rV8
PYAMdxXLzyt9uWMOVgQjJnWg4q6H8RcjJ/1NkAGoCOgFuaJu0f/jSyokfHr3Crio
FZ7zpZ67cs7Dyz4ZfsEDV1om7WjsiQzR4tZSp6swXXMCAwEAAaOCAQQwggEAMA8G
A1UdEwEB/wQFMAMBAf8wDgYDVR0PAQH/BAQDAgEGMB0GA1UdDgQWBBS8PeSkx7yL
MQtV4sMHoqL429e7cDAfBgNVHSMEGDAWgBTGON+k2onDjBtKS2UHJa+z1LZHgjCB
hAYDVR0fBH0wezA+oDygOoY4aHR0cDovL3BraS1jcmwuaXRuLmZ0Z3JvdXAvY3Js
L29yYW5nZWludGVybmFsZzItcm9vdC5jcmwwOaA3oDWGM2h0dHA6Ly9wa2kub3Jh
bmdlLmNvbS9jcmwvb3JhbmdlaW50ZXJuYWxnMi1yb290LmNybDAWBgNVHSAEDzAN
MAsGCSqBegEQDAoBATANBgkqhkiG9w0BAQsFAAOCAgEAQzrAaBHlbm8sFTNaLCm9
0imjsDrpCriwTAV3sxaFMXxuoQOIN7frc+tulEq1ATZNicbiRqHJq9BnIc1MGu/A
hzxvFMBAjBnj8/wqAY0GsFr52axYQHwgANs9OIuSw8oz3/z1/6T/42JtK+WlIS/r
malTSJqa2CEe/fRVQJp5YcO0U1mIVHatcMq7Z9YVY6K8A7hb7qSs7GO36U7hStFt
72s5++fdG+s5IDi2l6CMTZmelbhjsxJL/A9u8yrFJxniAHs5+ikwO+MoL2ZBC+0A
Jt8Xtjye32//LGAyvai1jJ4U501wjBvvdbul1xVARV/sHrYSE+hvDEtfHcSn92H4
zC9C2ANMGGxykbDLWbVfqmGW5Iz4UWCEv6n451QckMJNJI7743qeUc0AHdMtPDtx
+ItAxpaUIXINR9Lqo3erWefYLSne7vi86QdqCvwHWpzjuIJ9DXOT5qRCN0M859AA
ZFRBQn5zjPO1tyvtwb9/0o1AjL5NAMc88qQAmxkiC9/QzDL7LYxjKgkwCWx+DfJF
/2Xe9zb3zGvT6xOjIELMQhNwnU37EMe4hSnn4dJBf0yNq4g3Rt3MmFFCDy6YE3PG
rtfQ/CUwLPJb9Bqroqe4ryYPsVKpKe+71fEOKS8iHlFSggGZucZ63WKSyiBS1sJt
V5qME0d/UK4/+4FTP7FcXmc=
-----END CERTIFICATE-----
