Certificate:
    Data:
        Version: 3 (0x2)
        Serial Number: 0 (0x0)
    Signature Algorithm: sha512WithRSAEncryption
        Issuer: C=FR, O=Orange, OU=FR 89 380129866, CN=Orange Internal G2 Root CA
        Validity
            Not Before: May  2 11:38:07 2016 GMT
            Not After : May  2 11:38:07 2041 GMT
        Subject: C=FR, O=Orange, OU=FR 89 380129866, CN=Orange Internal G2 Root CA
        Subject Public Key Info:
            Public Key Algorithm: rsaEncryption
                Public-Key: (4096 bit)
                Modulus:
                    00:e0:8b:eb:1a:24:d9:5c:d5:c8:7b:25:f5:1b:9c:
                    2a:3b:44:00:b7:c8:d4:2c:7d:ba:ed:40:6d:f9:5f:
                    b1:53:f8:60:4a:4e:1e:d0:d6:e3:27:eb:df:db:92:
                    07:d3:6f:8d:54:49:f0:b3:ed:78:b6:ec:b8:21:da:
                    68:33:3a:0f:8b:ab:96:e8:63:4b:bd:c2:da:fa:2b:
                    30:41:25:80:20:86:d6:c8:c7:6b:4a:57:0c:b5:46:
                    ec:7f:42:7a:0a:a5:c9:9b:67:bd:bc:ea:b8:96:d8:
                    b0:26:5a:cb:00:58:c7:8a:55:a1:ed:09:bc:f2:4a:
                    23:bf:e7:bc:4d:88:74:8d:14:7b:d3:eb:e2:fd:27:
                    52:22:61:cd:91:b5:4b:4e:26:0f:0e:04:32:54:ef:
                    5b:ad:25:14:ba:a7:a9:70:c0:d2:2b:48:25:fa:40:
                    c1:b0:05:ab:0d:71:b2:f1:71:5c:19:c2:fe:f5:14:
                    6d:07:2d:3a:2e:e3:7b:c6:02:fe:9e:70:d1:aa:09:
                    a3:6c:06:92:00:f0:d9:b1:a9:3b:55:5a:7b:27:f1:
                    4e:dc:9f:e3:54:54:0b:6c:2e:57:d6:ce:da:f8:55:
                    d5:a5:9f:d2:fa:79:f7:3c:9b:32:52:ff:a4:c4:e6:
                    89:aa:1a:ad:54:2b:f1:a1:3f:44:6b:a3:9f:f9:8c:
                    ab:34:f8:25:59:a2:0a:60:f9:6c:fc:b6:39:52:89:
                    9d:c8:7b:2f:f4:4d:23:f2:eb:a2:91:75:ee:53:f3:
                    a5:76:e8:aa:4f:0c:d8:ad:be:4f:b0:31:20:9d:2f:
                    a1:a9:da:c4:f5:dd:64:51:25:87:10:a0:fd:75:b4:
                    e0:e6:95:ac:de:1d:3b:5c:77:9e:38:d1:d8:c3:62:
                    cc:58:5e:ef:d3:59:ec:b1:1d:79:f9:6d:72:0d:75:
                    21:70:ba:74:ab:42:82:cd:3f:18:bb:ba:23:a9:d8:
                    b9:22:d1:ab:a3:79:9f:00:2c:d3:5e:c8:27:0d:51:
                    48:54:f6:49:84:ba:83:a2:63:88:04:fe:9a:bd:dd:
                    a9:70:52:b0:dc:11:06:e8:3c:a0:fc:66:f3:65:4d:
                    50:73:5c:8f:f2:ea:35:8a:fc:10:40:ea:20:27:7c:
                    3e:d4:5b:10:0e:a9:49:73:33:c6:a3:b6:cd:c4:44:
                    0e:9a:d6:39:4a:4b:e3:b6:39:08:aa:5c:1b:94:7e:
                    b2:d7:b3:1e:05:cc:f0:0a:ec:99:3d:80:d3:9f:82:
                    43:7b:de:cb:aa:69:ff:5d:2a:f3:48:19:d7:58:89:
                    0c:8a:af:19:55:50:bd:cb:c1:a9:0f:b4:12:8d:91:
                    af:92:af:f6:53:db:cc:8b:ec:87:1a:fa:81:27:84:
                    1e:8f:27
                Exponent: 65537 (0x10001)
        X509v3 extensions:
            X509v3 Basic Constraints: critical
                CA:TRUE
            X509v3 Key Usage: critical
                Certificate Sign, CRL Sign
            X509v3 Subject Key Identifier:
                C6:38:DF:A4:DA:89:C3:8C:1B:4A:4B:65:07:25:AF:B3:D4:B6:47:82
            X509v3 Authority Key Identifier:
                keyid:C6:38:DF:A4:DA:89:C3:8C:1B:4A:4B:65:07:25:AF:B3:D4:B6:47:82

            X509v3 Certificate Policies:
                Policy: 1.2.250.1.16.12.10.1.1

    Signature Algorithm: sha512WithRSAEncryption
         1e:6e:45:66:50:ef:fb:6a:73:57:b7:f8:85:f1:03:61:6c:05:
         9f:62:db:ab:29:ff:63:c0:6c:8b:27:ef:4d:7d:75:01:83:b0:
         e3:53:9e:14:ba:e4:dc:51:4c:eb:e8:8b:6f:5e:03:5d:07:13:
         c0:78:c1:bb:1f:b6:86:d1:f8:4f:78:f2:3d:e0:66:b2:74:73:
         bb:1b:1b:eb:54:ea:60:ed:53:9c:87:7c:cf:3a:e8:c8:f4:d3:
         f8:c1:c0:06:61:13:c9:47:fd:ba:e4:a2:b2:93:60:24:95:e4:
         61:8c:69:54:f5:4b:51:93:6d:4a:ea:03:b9:59:23:1c:93:90:
         d0:d4:53:07:ed:57:cd:f4:a1:b9:2c:08:e2:fb:6d:b6:58:51:
         83:aa:95:be:08:e7:c8:fd:ad:47:c0:58:c2:41:d6:23:e8:87:
         33:c5:54:c2:86:58:23:29:37:cd:16:c5:4d:da:96:13:27:9b:
         50:09:b6:68:9e:cb:82:ea:e8:31:36:7b:d5:9c:6f:0f:f2:c9:
         7c:7c:9b:8f:c1:db:ae:6d:93:93:e0:ea:e6:0b:c1:8a:08:1f:
         82:cd:b7:97:1d:ae:58:12:5b:31:af:05:ec:8e:c9:1f:ff:98:
         b2:fc:17:9a:54:12:90:33:c3:71:4a:29:29:eb:2d:88:a5:5b:
         7c:08:58:d4:d4:43:a8:c9:70:90:e2:cb:ac:6c:4f:8c:02:82:
         0d:8c:15:93:1c:f4:a6:42:e7:58:38:83:44:da:4b:94:3a:49:
         eb:1d:fe:74:e5:f7:e2:f8:be:2b:77:6a:c2:5e:f7:25:77:57:
         a3:83:44:5e:cc:15:b1:53:3c:7c:3f:9c:74:79:6e:4b:be:29:
         7a:63:1f:ff:ba:25:51:f7:7a:d1:86:02:fb:a4:70:41:1c:8f:
         ff:82:34:59:a3:6c:e8:3e:01:f1:1d:eb:73:f5:f5:a1:b8:2f:
         c7:a3:5f:17:9e:66:14:4c:16:df:28:71:44:b8:ee:c7:9b:18:
         10:17:e4:4f:cb:53:96:55:5c:45:4c:09:09:0b:a6:2d:44:bd:
         ae:7a:c2:32:c0:e4:05:f2:3f:64:df:88:4c:17:16:8b:a7:00:
         c8:e7:2c:20:e9:38:ba:9f:5a:52:f3:49:4c:c2:94:94:4c:9b:
         0c:d3:7c:70:3a:7d:fa:f2:e8:9c:dd:a1:60:c8:35:21:f2:7e:
         21:9b:3a:c7:7a:c3:af:93:17:b9:64:e4:b3:7e:21:10:98:9d:
         a6:63:93:98:ec:b2:fd:03:c7:08:ad:01:19:19:94:a1:82:6b:
         e0:21:d2:e0:52:f6:06:db:27:08:fc:94:50:ee:20:a6:98:f2:
         c1:f6:2b:a2:d4:36:81:34
-----BEGIN CERTIFICATE-----
MIIFsDCCA5igAwIBAgIBADANBgkqhkiG9w0BAQ0FADBdMQswCQYDVQQGEwJGUjEP
MA0GA1UECgwGT3JhbmdlMRgwFgYDVQQLDA9GUiA4OSAzODAxMjk4NjYxIzAhBgNV
BAMMGk9yYW5nZSBJbnRlcm5hbCBHMiBSb290IENBMB4XDTE2MDUwMjExMzgwN1oX
DTQxMDUwMjExMzgwN1owXTELMAkGA1UEBhMCRlIxDzANBgNVBAoMBk9yYW5nZTEY
MBYGA1UECwwPRlIgODkgMzgwMTI5ODY2MSMwIQYDVQQDDBpPcmFuZ2UgSW50ZXJu
YWwgRzIgUm9vdCBDQTCCAiIwDQYJKoZIhvcNAQEBBQADggIPADCCAgoCggIBAOCL
6xok2VzVyHsl9RucKjtEALfI1Cx9uu1AbflfsVP4YEpOHtDW4yfr39uSB9NvjVRJ
8LPteLbsuCHaaDM6D4urluhjS73C2vorMEElgCCG1sjHa0pXDLVG7H9CegqlyZtn
vbzquJbYsCZaywBYx4pVoe0JvPJKI7/nvE2IdI0Ue9Pr4v0nUiJhzZG1S04mDw4E
MlTvW60lFLqnqXDA0itIJfpAwbAFqw1xsvFxXBnC/vUUbQctOi7je8YC/p5w0aoJ
o2wGkgDw2bGpO1VaeyfxTtyf41RUC2wuV9bO2vhV1aWf0vp59zybMlL/pMTmiaoa
rVQr8aE/RGujn/mMqzT4JVmiCmD5bPy2OVKJnch7L/RNI/LropF17lPzpXboqk8M
2K2+T7AxIJ0voanaxPXdZFElhxCg/XW04OaVrN4dO1x3njjR2MNizFhe79NZ7LEd
efltcg11IXC6dKtCgs0/GLu6I6nYuSLRq6N5nwAs017IJw1RSFT2SYS6g6JjiAT+
mr3dqXBSsNwRBug8oPxm82VNUHNcj/LqNYr8EEDqICd8PtRbEA6pSXMzxqO2zcRE
DprWOUpL47Y5CKpcG5R+stezHgXM8ArsmT2A05+CQ3vey6pp/10q80gZ11iJDIqv
GVVQvcvBqQ+0Eo2Rr5Kv9lPbzIvshxr6gSeEHo8nAgMBAAGjezB5MA8GA1UdEwEB
/wQFMAMBAf8wDgYDVR0PAQH/BAQDAgEGMB0GA1UdDgQWBBTGON+k2onDjBtKS2UH
Ja+z1LZHgjAfBgNVHSMEGDAWgBTGON+k2onDjBtKS2UHJa+z1LZHgjAWBgNVHSAE
DzANMAsGCSqBegEQDAoBATANBgkqhkiG9w0BAQ0FAAOCAgEAHm5FZlDv+2pzV7f4
hfEDYWwFn2Lbqyn/Y8BsiyfvTX11AYOw41OeFLrk3FFM6+iLb14DXQcTwHjBux+2
htH4T3jyPeBmsnRzuxsb61TqYO1TnId8zzroyPTT+MHABmETyUf9uuSispNgJJXk
YYxpVPVLUZNtSuoDuVkjHJOQ0NRTB+1XzfShuSwI4vtttlhRg6qVvgjnyP2tR8BY
wkHWI+iHM8VUwoZYIyk3zRbFTdqWEyebUAm2aJ7LguroMTZ71ZxvD/LJfHybj8Hb
rm2Tk+Dq5gvBiggfgs23lx2uWBJbMa8F7I7JH/+YsvwXmlQSkDPDcUopKestiKVb
fAhY1NRDqMlwkOLLrGxPjAKCDYwVkxz0pkLnWDiDRNpLlDpJ6x3+dOX34vi+K3dq
wl73JXdXo4NEXswVsVM8fD+cdHluS74pemMf/7olUfd60YYC+6RwQRyP/4I0WaNs
6D4B8R3rc/X1obgvx6NfF55mFEwW3yhxRLjux5sYEBfkT8tTllVcRUwJCQumLUS9
rnrCMsDkBfI/ZN+ITBcWi6cAyOcsIOk4up9aUvNJTMKUlEybDNN8cDp9+vLonN2h
YMg1IfJ+IZs6x3rDr5MXuWTks34hEJidpmOTmOyy/QPHCK0BGRmUoYJr4CHS4FL2
BtsnCPyUUO4gppjywfYrotQ2gTQ=
-----END CERTIFICATE-----
